; ModuleID = '36/1174.c'
source_filename = "36/1174.c"
target datalayout = "e-m:e-p270:32:32-p271:32:32-p272:64:64-i64:64-f80:128-n8:16:32:64-S128"
target triple = "x86_64-pc-linux-gnu"

@.str = private unnamed_addr constant [6 x i8] c"%s %s\00", align 1
@.str.1 = private unnamed_addr constant [4 x i8] c"YES\00", align 1
@.str.2 = private unnamed_addr constant [3 x i8] c"NO\00", align 1

; Function Attrs: noinline nounwind uwtable
define dso_local i32 @main() #0 {
  %1 = alloca i32, align 4
  %2 = alloca [100 x i8], align 16
  %3 = alloca [100 x i8], align 16
  %4 = alloca i8*, align 8
  %5 = alloca i8*, align 8
  %6 = alloca i32, align 4
  %7 = alloca i32, align 4
  store i32 0, i32* %1, align 4
  %8 = getelementptr inbounds [100 x i8], [100 x i8]* %2, i64 0, i64 0
  %9 = getelementptr inbounds [100 x i8], [100 x i8]* %3, i64 0, i64 0
  %10 = call i32 (i8*, ...) @__isoc99_scanf(i8* getelementptr inbounds ([6 x i8], [6 x i8]* @.str, i64 0, i64 0), i8* %8, i8* %9)
  %11 = getelementptr inbounds [100 x i8], [100 x i8]* %2, i64 0, i64 0
  store i8* %11, i8** %4, align 8
  %12 = getelementptr inbounds [100 x i8], [100 x i8]* %3, i64 0, i64 0
  store i8* %12, i8** %5, align 8
  store i32 1, i32* %6, align 4
  store i32 0, i32* %7, align 4
  br label %13

13:                                               ; preds = %44, %0
  %14 = load i8*, i8** %4, align 8
  %15 = load i8, i8* %14, align 1
  %16 = sext i8 %15 to i32
  %17 = icmp ne i32 %16, 0
  br i1 %17, label %18, label %47

18:                                               ; preds = %13
  store i32 0, i32* %7, align 4
  %19 = getelementptr inbounds [100 x i8], [100 x i8]* %3, i64 0, i64 0
  store i8* %19, i8** %5, align 8
  br label %20

20:                                               ; preds = %36, %18
  %21 = load i8*, i8** %5, align 8
  %22 = load i8, i8* %21, align 1
  %23 = sext i8 %22 to i32
  %24 = icmp ne i32 %23, 0
  br i1 %24, label %25, label %39

25:                                               ; preds = %20
  %26 = load i8*, i8** %4, align 8
  %27 = load i8, i8* %26, align 1
  %28 = sext i8 %27 to i32
  %29 = load i8*, i8** %5, align 8
  %30 = load i8, i8* %29, align 1
  %31 = sext i8 %30 to i32
  %32 = icmp eq i32 %28, %31
  br i1 %32, label %33, label %35

33:                                               ; preds = %25
  %34 = load i8*, i8** %5, align 8
  store i8 32, i8* %34, align 1
  store i32 1, i32* %7, align 4
  br label %39

35:                                               ; preds = %25
  br label %36

36:                                               ; preds = %35
  %37 = load i8*, i8** %5, align 8
  %38 = getelementptr inbounds i8, i8* %37, i32 1
  store i8* %38, i8** %5, align 8
  br label %20

39:                                               ; preds = %33, %20
  %40 = load i32, i32* %7, align 4
  %41 = icmp ne i32 %40, 1
  br i1 %41, label %42, label %43

42:                                               ; preds = %39
  store i32 0, i32* %6, align 4
  br label %47

43:                                               ; preds = %39
  br label %44

44:                                               ; preds = %43
  %45 = load i8*, i8** %4, align 8
  %46 = getelementptr inbounds i8, i8* %45, i32 1
  store i8* %46, i8** %4, align 8
  br label %13

47:                                               ; preds = %42, %13
  %48 = load i32, i32* %6, align 4
  %49 = icmp ne i32 %48, 0
  br i1 %49, label %50, label %58

50:                                               ; preds = %47
  %51 = getelementptr inbounds [100 x i8], [100 x i8]* %2, i64 0, i64 0
  %52 = call i64 @strlen(i8* %51) #3
  %53 = getelementptr inbounds [100 x i8], [100 x i8]* %3, i64 0, i64 0
  %54 = call i64 @strlen(i8* %53) #3
  %55 = icmp eq i64 %52, %54
  br i1 %55, label %56, label %58

56:                                               ; preds = %50
  %57 = call i32 (i8*, ...) @printf(i8* getelementptr inbounds ([4 x i8], [4 x i8]* @.str.1, i64 0, i64 0))
  br label %60

58:                                               ; preds = %50, %47
  %59 = call i32 (i8*, ...) @printf(i8* getelementptr inbounds ([3 x i8], [3 x i8]* @.str.2, i64 0, i64 0))
  br label %60

60:                                               ; preds = %58, %56
  ret i32 0
}

declare dso_local i32 @__isoc99_scanf(i8*, ...) #1

; Function Attrs: nounwind readonly
declare dso_local i64 @strlen(i8*) #2

declare dso_local i32 @printf(i8*, ...) #1


!llvm.module.flags = !{!0}
!llvm.ident = !{!1}

!0 = !{i32 1, !"wchar_size", i32 4}
!1 = !{!"clang version 10.0.0-4ubuntu1 "}
